; Function Attrs: nounwind uwtable
define internal i32 @test_exchange_error() #0 {
  %1 = tail call fastcc ptr @set_up(ptr noundef nonnull @.str.54)
  %2 = icmp eq ptr %1, null
  br i1 %2, label %15, label %3

3:                                                ; preds = %0
  %4 = getelementptr inbounds nuw i8, ptr %1, i64 28
  store i32 1, ptr %4, align 4, !tbaa !17
  %5 = getelementptr inbounds nuw i8, ptr %1, i64 8
  %6 = load ptr, ptr %5, align 8, !tbaa !23
  %7 = tail call i32 @ossl_cmp_exchange_error(ptr noundef %6, i32 noundef 2, i32 noundef 4194304, ptr noundef nonnull @.str.88, i32 noundef 999, ptr noundef nonnull @.str.89) #4
  %8 = load i32, ptr %4, align 4, !tbaa !17
  %9 = tail call i32 @test_int_eq(ptr noundef nonnull @.str.14, i32 noundef 487, ptr noundef nonnull @.str.65, ptr noundef nonnull @.str.67, i32 noundef %8, i32 noundef %7) #4
  %10 = load ptr, ptr %5, align 8, !tbaa !23
  tail call void @OSSL_CMP_CTX_free(ptr noundef %10) #4
  %11 = getelementptr inbounds nuw i8, ptr %1, i64 16
  %12 = load ptr, ptr %11, align 8, !tbaa !24
  tail call void @ossl_cmp_mock_srv_free(ptr noundef %12) #4
  %13 = getelementptr inbounds nuw i8, ptr %1, i64 32
  %14 = load ptr, ptr %13, align 8, !tbaa !25
  tail call void @OPENSSL_sk_free(ptr noundef %14) #4
  tail call void @CRYPTO_free(ptr noundef nonnull %1, ptr noundef nonnull @.str.14, i32 noundef 51) #4
  br label %15

15:                                               ; preds = %0, %3
  %.06 = phi i32 [ %9, %3 ], [ 0, %0 ]
  ret i32 %.06
}